(dp1
S'body'
p2
(dp3
S'length'
p4
I32768
sS'unique'
p5
I00
sS'sortable'
p6
I4
sS'sql'
p7
S'TEXT'
p8
sS'notnull'
p9
I00
sS'type'
p10
S'text'
p11
ssS'username'
p12
(dp13
g4
I512
sg5
I00
sg6
I6
sg7
S'CHAR(512)'
p14
sg9
I00
sg10
S'string'
p15
ssS'product'
p16
(dp17
g4
I512
sg5
I00
sg6
I2
sg7
S'INTEGER REFERENCES products (id) ON DELETE CASCADE  '
p18
sg9
I00
sg10
S'reference products'
p19
ssS'user_id'
p20
(dp21
g4
I512
sg5
I00
sg6
I7
sg7
S'INTEGER REFERENCES auth_user (id) ON DELETE CASCADE  '
p22
sg9
I00
sg10
S'reference auth_user'
p23
ssS'title'
p24
(dp25
g4
I512
sg5
I00
sg6
I3
sg7
S'CHAR(512)'
p26
sg9
I00
sg10
g15
ssS'userid'
p27
(dp28
S'sortable'
p29
L7L
sS'sql'
p30
S'INTEGER REFERENCES auth_user (id) ON DELETE CASCADE  '
p31
sS'length'
p32
L512L
sS'notnull'
p33
L0L
sS'unique'
p34
L0L
sS'type'
p35
S'reference auth_user'
p36
ssS'profilepicture'
p37
(dp38
S'sortable'
p39
<<<<<<< HEAD
I7
=======
L7L
>>>>>>> 60c4a074fc2a55b4cfbe6a388c1b81bb9294b468
sS'sql'
p40
S'CHAR(512)'
p41
sS'length'
p42
<<<<<<< HEAD
I512
sS'notnull'
p43
I00
sS'unique'
p44
I00
=======
L512L
sS'notnull'
p43
L0L
sS'unique'
p44
L0L
>>>>>>> 60c4a074fc2a55b4cfbe6a388c1b81bb9294b468
sS'type'
p45
S'upload'
p46
ssS'time_stamp'
p47
(dp48
g4
I512
sg5
I00
sg6
I5
sg7
S'TIMESTAMP'
p49
sg9
I00
sg10
S'datetime'
p50
ssS'id'
p51
(dp52
g4
I512
sg5
I00
sg6
I1
sg7
S'INTEGER PRIMARY KEY AUTOINCREMENT'
p53
sg9
I00
sg10
S'id'
p54
ss.